; ModuleID = 'source-C-CXX/61/437.cpp'
source_filename = "source-C-CXX/61/437.cpp"
target datalayout = "e-m:e-p270:32:32-p271:32:32-p272:64:64-i64:64-f80:128-n8:16:32:64-S128"
target triple = "x86_64-pc-linux-gnu"

%"class.std::ios_base::Init" = type { i8 }
%"class.std::basic_istream" = type { i32 (...)**, i64, %"class.std::basic_ios" }
%"class.std::basic_ios" = type { %"class.std::ios_base", %"class.std::basic_ostream"*, i8, i8, %"class.std::basic_streambuf"*, %"class.std::ctype"*, %"class.std::num_put"*, %"class.std::num_get"* }
%"class.std::ios_base" = type { i32 (...)**, i64, i64, i32, i32, i32, %"struct.std::ios_base::_Callback_list"*, %"struct.std::ios_base::_Words", [8 x %"struct.std::ios_base::_Words"], i32, %"struct.std::ios_base::_Words"*, %"class.std::locale" }
%"struct.std::ios_base::_Callback_list" = type { %"struct.std::ios_base::_Callback_list"*, void (i32, %"class.std::ios_base"*, i32)*, i32, i32 }
%"struct.std::ios_base::_Words" = type { i8*, i64 }
%"class.std::locale" = type { %"class.std::locale::_Impl"* }
%"class.std::locale::_Impl" = type { i32, %"class.std::locale::facet"**, i64, %"class.std::locale::facet"**, i8** }
%"class.std::locale::facet" = type <{ i32 (...)**, i32, [4 x i8] }>
%"class.std::basic_ostream" = type { i32 (...)**, %"class.std::basic_ios" }
%"class.std::basic_streambuf" = type { i32 (...)**, i8*, i8*, i8*, i8*, i8*, i8*, %"class.std::locale" }
%"class.std::ctype" = type <{ %"class.std::locale::facet.base", [4 x i8], %struct.__locale_struct*, i8, [7 x i8], i32*, i32*, i16*, i8, [256 x i8], [256 x i8], i8, [6 x i8] }>
%"class.std::locale::facet.base" = type <{ i32 (...)**, i32 }>
%struct.__locale_struct = type { [13 x %struct.__locale_data*], i16*, i32*, i32*, [13 x i8*] }
%struct.__locale_data = type opaque
%"class.std::num_put" = type { %"class.std::locale::facet.base", [4 x i8] }
%"class.std::num_get" = type { %"class.std::locale::facet.base", [4 x i8] }

@_ZStL8__ioinit = internal global %"class.std::ios_base::Init" zeroinitializer, align 1
@__dso_handle = external hidden global i8
@_ZSt3cin = external global %"class.std::basic_istream", align 8
@_ZSt4cout = external global %"class.std::basic_ostream", align 8
@llvm.global_ctors = appending global [1 x { i32, void ()*, i8* }] [{ i32, void ()*, i8* } { i32 65535, void ()* @_GLOBAL__sub_I_437.cpp, i8* null }]

declare void @_ZNSt8ios_base4InitC1Ev(%"class.std::ios_base::Init"* nonnull align 1 dereferenceable(1)) unnamed_addr #0

; Function Attrs: nounwind
declare void @_ZNSt8ios_base4InitD1Ev(%"class.std::ios_base::Init"* nonnull align 1 dereferenceable(1)) unnamed_addr #1

; Function Attrs: nofree nounwind
declare i32 @__cxa_atexit(void (i8*)*, i8*, i8*) local_unnamed_addr #2

; Function Attrs: mustprogress norecurse sspstrong uwtable
define dso_local i32 @main() local_unnamed_addr #3 {
  %1 = alloca i8, align 1
  %2 = alloca [100 x i8], align 16
  %3 = getelementptr inbounds [100 x i8], [100 x i8]* %2, i64 0, i64 0
  call void @llvm.lifetime.start.p0i8(i64 100, i8* nonnull %3) #6
  %4 = call nonnull align 8 dereferenceable(16) %"class.std::basic_istream"* @_ZNSi7getlineEPclc(%"class.std::basic_istream"* nonnull align 8 dereferenceable(16) @_ZSt3cin, i8* nonnull %3, i64 100, i8 signext 10)
  br label %5

5:                                                ; preds = %34, %0
  %6 = phi i64 [ %35, %34 ], [ 0, %0 ]
  %7 = phi i64 [ %36, %34 ], [ 1, %0 ]
  %8 = getelementptr inbounds [100 x i8], [100 x i8]* %2, i64 0, i64 %6
  %9 = load i8, i8* %8, align 1, !tbaa !5
  switch i8 %9, label %10 [
    i8 0, label %12
    i8 32, label %15
  ]

10:                                               ; preds = %5
  %11 = add nuw i64 %6, 1
  br label %34

12:                                               ; preds = %5
  %13 = load i8, i8* %3, align 16, !tbaa !5
  %14 = icmp eq i8 %13, 0
  br i1 %14, label %45, label %37

15:                                               ; preds = %5
  %16 = add nuw i64 %6, 1
  %17 = getelementptr inbounds [100 x i8], [100 x i8]* %2, i64 0, i64 %16
  %18 = load i8, i8* %17, align 1, !tbaa !5
  %19 = icmp eq i8 %18, 32
  br i1 %19, label %23, label %34

20:                                               ; preds = %23
  %21 = load i8, i8* %17, align 1, !tbaa !5
  %22 = icmp eq i8 %21, 32
  br i1 %22, label %31, label %34

23:                                               ; preds = %15, %31
  %24 = phi i64 [ %32, %31 ], [ %7, %15 ]
  %25 = phi i8* [ %33, %31 ], [ %17, %15 ]
  %26 = add nuw i64 %24, 1
  %27 = getelementptr inbounds [100 x i8], [100 x i8]* %2, i64 0, i64 %26
  %28 = load i8, i8* %27, align 1, !tbaa !5
  store i8 %28, i8* %25, align 1, !tbaa !5
  %29 = load i8, i8* %27, align 1, !tbaa !5
  %30 = icmp eq i8 %29, 0
  br i1 %30, label %20, label %31

31:                                               ; preds = %23, %20
  %32 = phi i64 [ %26, %23 ], [ %7, %20 ]
  %33 = phi i8* [ %27, %23 ], [ %17, %20 ]
  br label %23, !llvm.loop !8

34:                                               ; preds = %20, %10, %15
  %35 = phi i64 [ %11, %10 ], [ %16, %15 ], [ %16, %20 ]
  %36 = add nuw i64 %7, 1
  br label %5, !llvm.loop !10

37:                                               ; preds = %12, %37
  %38 = phi i64 [ %41, %37 ], [ 0, %12 ]
  %39 = phi i8 [ %43, %37 ], [ %13, %12 ]
  call void @llvm.lifetime.start.p0i8(i64 1, i8* nonnull %1)
  store i8 %39, i8* %1, align 1, !tbaa !5
  %40 = call nonnull align 8 dereferenceable(8) %"class.std::basic_ostream"* @_ZSt16__ostream_insertIcSt11char_traitsIcEERSt13basic_ostreamIT_T0_ES6_PKS3_l(%"class.std::basic_ostream"* nonnull align 8 dereferenceable(8) @_ZSt4cout, i8* nonnull %1, i64 1)
  call void @llvm.lifetime.end.p0i8(i64 1, i8* nonnull %1)
  %41 = add nuw i64 %38, 1
  %42 = getelementptr inbounds [100 x i8], [100 x i8]* %2, i64 0, i64 %41
  %43 = load i8, i8* %42, align 1, !tbaa !5
  %44 = icmp eq i8 %43, 0
  br i1 %44, label %45, label %37, !llvm.loop !12

45:                                               ; preds = %37, %12
  call void @llvm.lifetime.end.p0i8(i64 100, i8* nonnull %3) #6
  ret i32 0
}

; Function Attrs: argmemonly mustprogress nofree nosync nounwind willreturn
declare void @llvm.lifetime.start.p0i8(i64 immarg, i8* nocapture) #4

declare nonnull align 8 dereferenceable(16) %"class.std::basic_istream"* @_ZNSi7getlineEPclc(%"class.std::basic_istream"* nonnull align 8 dereferenceable(16), i8*, i64, i8 signext) local_unnamed_addr #0

; Function Attrs: argmemonly mustprogress nofree nosync nounwind willreturn
declare void @llvm.lifetime.end.p0i8(i64 immarg, i8* nocapture) #4

declare nonnull align 8 dereferenceable(8) %"class.std::basic_ostream"* @_ZSt16__ostream_insertIcSt11char_traitsIcEERSt13basic_ostreamIT_T0_ES6_PKS3_l(%"class.std::basic_ostream"* nonnull align 8 dereferenceable(8), i8*, i64) local_unnamed_addr #0

; Function Attrs: sspstrong uwtable
define internal void @_GLOBAL__sub_I_437.cpp() #5 section ".text.startup" {
  tail call void @_ZNSt8ios_base4InitC1Ev(%"class.std::ios_base::Init"* nonnull align 1 dereferenceable(1) @_ZStL8__ioinit)
  %1 = tail call i32 @__cxa_atexit(void (i8*)* bitcast (void (%"class.std::ios_base::Init"*)* @_ZNSt8ios_base4InitD1Ev to void (i8*)*), i8* getelementptr inbounds (%"class.std::ios_base::Init", %"class.std::ios_base::Init"* @_ZStL8__ioinit, i64 0, i32 0), i8* nonnull @__dso_handle) #6
  ret void
}


!llvm.module.flags = !{!0, !1, !2, !3}
!llvm.ident = !{!4}

!0 = !{i32 1, !"wchar_size", i32 4}
!1 = !{i32 7, !"PIC Level", i32 2}
!2 = !{i32 7, !"PIE Level", i32 2}
!3 = !{i32 7, !"uwtable", i32 1}
!4 = !{!"clang version 13.0.0"}
!5 = !{!6, !6, i64 0}
!6 = !{!"omnipotent char", !7, i64 0}
!7 = !{!"Simple C++ TBAA"}
!8 = distinct !{!8, !9}
!9 = !{!"llvm.loop.unswitch.partial.disable"}
!10 = distinct !{!10, !11}
!11 = !{!"llvm.loop.mustprogress"}
!12 = distinct !{!12, !11}
